target datalayout = "e-m:e-p270:32:32-p271:32:32-p272:64:64-i64:64-i128:128-f80:128-n8:16:32:64-S128"
target triple = "x86_64-pc-linux-gnu"

%"class.std::__cxx11::basic_string" = type { %"struct.std::__cxx11::basic_string<char>::_Alloc_hider", i64, %union.anon }
%"struct.std::__cxx11::basic_string<char>::_Alloc_hider" = type { ptr }
%union.anon = type { i64, [8 x i8] }
%"class.google::protobuf::StringPiece" = type { ptr, i64 }
%"class.google::protobuf::internal::LogMessage" = type { i32, ptr, i32, %"class.std::__cxx11::basic_string" }
%"class.google::protobuf::internal::LogFinisher" = type { i8 }
%"class.__gnu_cxx::__normal_iterator.5" = type { ptr }

@.str = private unnamed_addr constant [37 x i8] c"third_party/protobuf-lite/strutil.cc\00", align 1
@.str.39 = private unnamed_addr constant [36 x i8] c"CHECK failed: (len) <= (dest_len): \00", align 1
@.str.45 = private unnamed_addr constant [55 x i8] c"%s: __pos (which is %zu) > this->size() (which is %zu)\00", align 1
@.str.49 = private unnamed_addr constant [20 x i8] c"basic_string::erase\00", align 1

; Function Attrs: mustprogress nounwind uwtable
define linkonce_odr void @_ZNSt11char_traitsIcE6assignERcRKc(ptr noundef nonnull align 1 dereferenceable(1) %0, ptr noundef nonnull align 1 dereferenceable(1) %1) #6 comdat align 2 {
  %3 = alloca ptr, align 8
  %4 = alloca ptr, align 8
  store ptr %0, ptr %3, align 8, !tbaa !8
  store ptr %1, ptr %4, align 8, !tbaa !8
  %5 = load ptr, ptr %4, align 8, !tbaa !8
  %6 = load i8, ptr %5, align 1, !tbaa !10
  %7 = load ptr, ptr %3, align 8, !tbaa !8
  store i8 %6, ptr %7, align 1, !tbaa !10
  ret void
}

; Function Attrs: mustprogress nounwind uwtable
define available_externally void @_ZNSt7__cxx1112basic_stringIcSt11char_traitsIcESaIcEE9_M_lengthEm(ptr noundef nonnull align 8 dereferenceable(32) %0, i64 noundef %1) #6 align 2 {
  %3 = alloca ptr, align 8
  %4 = alloca i64, align 8
  store ptr %0, ptr %3, align 8, !tbaa !3
  store i64 %1, ptr %4, align 8, !tbaa !13
  %5 = load ptr, ptr %3, align 8
  %6 = load i64, ptr %4, align 8, !tbaa !13
  %7 = getelementptr inbounds nuw %"class.std::__cxx11::basic_string", ptr %5, i32 0, i32 1
  store i64 %6, ptr %7, align 8, !tbaa !19
  ret void
}

; Function Attrs: mustprogress nounwind uwtable
define linkonce_odr void @_ZN9__gnu_cxx17__normal_iteratorIPcNSt7__cxx1112basic_stringIcSt11char_traitsIcESaIcEEEEC2ERKS1_(ptr noundef nonnull align 8 dereferenceable(8) %0, ptr noundef nonnull align 8 dereferenceable(8) %1) unnamed_addr #6 comdat align 2 {
  %3 = alloca ptr, align 8
  %4 = alloca ptr, align 8
  store ptr %0, ptr %3, align 8, !tbaa !105
  store ptr %1, ptr %4, align 8, !tbaa !49
  %5 = load ptr, ptr %3, align 8
  %6 = getelementptr inbounds nuw %"class.__gnu_cxx::__normal_iterator.5", ptr %5, i32 0, i32 0
  %7 = load ptr, ptr %4, align 8, !tbaa !49
  %8 = load ptr, ptr %7, align 8, !tbaa !8
  store ptr %8, ptr %6, align 8, !tbaa !107
  ret void
}

; Function Attrs: mustprogress nounwind uwtable
define available_externally noundef ptr @_ZNKSt7__cxx1112basic_stringIcSt11char_traitsIcESaIcEE7_M_dataEv(ptr noundef nonnull align 8 dereferenceable(32) %0) #6 align 2 {
  %2 = alloca ptr, align 8
  store ptr %0, ptr %2, align 8, !tbaa !3
  %3 = load ptr, ptr %2, align 8
  %4 = getelementptr inbounds nuw %"class.std::__cxx11::basic_string", ptr %3, i32 0, i32 0
  %5 = getelementptr inbounds nuw %"struct.std::__cxx11::basic_string<char>::_Alloc_hider", ptr %4, i32 0, i32 0
  %6 = load ptr, ptr %5, align 8, !tbaa !147
  ret ptr %6
}

; Function Attrs: mustprogress nounwind uwtable
define available_externally noundef i64 @_ZNKSt7__cxx1112basic_stringIcSt11char_traitsIcESaIcEE4sizeEv(ptr noundef nonnull align 8 dereferenceable(32) %0) #6 align 2 {
  %2 = alloca ptr, align 8
  store ptr %0, ptr %2, align 8, !tbaa !3
  %3 = load ptr, ptr %2, align 8
  %4 = getelementptr inbounds nuw %"class.std::__cxx11::basic_string", ptr %3, i32 0, i32 1
  %5 = load i64, ptr %4, align 8, !tbaa !19
  ret i64 %5
}

; Function Attrs: mustprogress nounwind uwtable
define available_externally noundef i64 @_ZNKSt7__cxx1112basic_stringIcSt11char_traitsIcESaIcEE8_M_limitEmm(ptr noundef nonnull align 8 dereferenceable(32) %0, i64 noundef %1, i64 noundef %2) #6 align 2 {
  %4 = alloca ptr, align 8
  %5 = alloca i64, align 8
  %6 = alloca i64, align 8
  %7 = alloca i8, align 1
  store ptr %0, ptr %4, align 8, !tbaa !3
  store i64 %1, ptr %5, align 8, !tbaa !13
  store i64 %2, ptr %6, align 8, !tbaa !13
  %8 = load ptr, ptr %4, align 8
  call void @llvm.lifetime.start.p0(i64 1, ptr %7) #3
  %9 = load i64, ptr %6, align 8, !tbaa !13
  %10 = call noundef i64 @_ZNKSt7__cxx1112basic_stringIcSt11char_traitsIcESaIcEE4sizeEv(ptr noundef nonnull align 8 dereferenceable(32) %8) #3
  %11 = load i64, ptr %5, align 8, !tbaa !13
  %12 = sub i64 %10, %11
  %13 = icmp ult i64 %9, %12
  %14 = zext i1 %13 to i8
  store i8 %14, ptr %7, align 1, !tbaa !22
  %15 = load i8, ptr %7, align 1, !tbaa !22, !range !24, !noundef !25
  %16 = trunc i8 %15 to i1
  br i1 %16, label %17, label %19

17:                                               ; preds = %3
  %18 = load i64, ptr %6, align 8, !tbaa !13
  br label %23

19:                                               ; preds = %3
  %20 = call noundef i64 @_ZNKSt7__cxx1112basic_stringIcSt11char_traitsIcESaIcEE4sizeEv(ptr noundef nonnull align 8 dereferenceable(32) %8) #3
  %21 = load i64, ptr %5, align 8, !tbaa !13
  %22 = sub i64 %20, %21
  br label %23

23:                                               ; preds = %19, %17
  %24 = phi i64 [ %18, %17 ], [ %22, %19 ]
  call void @llvm.lifetime.end.p0(i64 1, ptr %7) #3
  ret i64 %24
}

; Function Attrs: mustprogress uwtable
define available_externally noundef i64 @_ZNKSt7__cxx1112basic_stringIcSt11char_traitsIcESaIcEE8_M_checkEmPKc(ptr noundef nonnull align 8 dereferenceable(32) %0, i64 noundef %1, ptr noundef %2) #4 align 2 {
  %4 = alloca ptr, align 8
  %5 = alloca i64, align 8
  %6 = alloca ptr, align 8
  store ptr %0, ptr %4, align 8, !tbaa !3
  store i64 %1, ptr %5, align 8, !tbaa !13
  store ptr %2, ptr %6, align 8, !tbaa !8
  %7 = load ptr, ptr %4, align 8
  %8 = load i64, ptr %5, align 8, !tbaa !13
  %9 = call noundef i64 @_ZNKSt7__cxx1112basic_stringIcSt11char_traitsIcESaIcEE4sizeEv(ptr noundef nonnull align 8 dereferenceable(32) %7) #3
  %10 = icmp ugt i64 %8, %9
  br i1 %10, label %11, label %15

11:                                               ; preds = %3
  %12 = load ptr, ptr %6, align 8, !tbaa !8
  %13 = load i64, ptr %5, align 8, !tbaa !13
  %14 = call noundef i64 @_ZNKSt7__cxx1112basic_stringIcSt11char_traitsIcESaIcEE4sizeEv(ptr noundef nonnull align 8 dereferenceable(32) %7) #3
  call void (ptr, ...) @_ZSt24__throw_out_of_range_fmtPKcz(ptr noundef @.str.45, ptr noundef %12, i64 noundef %13, i64 noundef %14) #20
  unreachable

15:                                               ; preds = %3
  %16 = load i64, ptr %5, align 8, !tbaa !13
  ret i64 %16
}

; Function Attrs: noinline noreturn nounwind uwtable
define linkonce_odr hidden void @__clang_call_terminate(ptr noundef %0) #15 comdat {
  %2 = call ptr @__cxa_begin_catch(ptr %0) #3
  call void @_ZSt9terminatev() #21
  unreachable
}

; Function Attrs: mustprogress uwtable
define available_externally void @_ZNSt7__cxx1112basic_stringIcSt11char_traitsIcESaIcEE13_M_set_lengthEm(ptr noundef nonnull align 8 dereferenceable(32) %0, i64 noundef %1) #4 align 2 {
  %3 = alloca ptr, align 8
  %4 = alloca i64, align 8
  %5 = alloca i8, align 1
  store ptr %0, ptr %3, align 8, !tbaa !3
  store i64 %1, ptr %4, align 8, !tbaa !13
  %6 = load ptr, ptr %3, align 8
  %7 = load i64, ptr %4, align 8, !tbaa !13
  call void @_ZNSt7__cxx1112basic_stringIcSt11char_traitsIcESaIcEE9_M_lengthEm(ptr noundef nonnull align 8 dereferenceable(32) %6, i64 noundef %7)
  %8 = call noundef ptr @_ZNKSt7__cxx1112basic_stringIcSt11char_traitsIcESaIcEE7_M_dataEv(ptr noundef nonnull align 8 dereferenceable(32) %6)
  %9 = load i64, ptr %4, align 8, !tbaa !13
  %10 = getelementptr inbounds nuw i8, ptr %8, i64 %9
  call void @llvm.lifetime.start.p0(i64 1, ptr %5) #3
  store i8 0, ptr %5, align 1, !tbaa !10
  call void @_ZNSt11char_traitsIcE6assignERcRKc(ptr noundef nonnull align 1 dereferenceable(1) %10, ptr noundef nonnull align 1 dereferenceable(1) %5) #3
  call void @llvm.lifetime.end.p0(i64 1, ptr %5) #3
  ret void
}

; Function Attrs: mustprogress nounwind uwtable
define linkonce_odr noundef nonnull align 1 dereferenceable(1) ptr @_ZNK9__gnu_cxx17__normal_iteratorIPcNSt7__cxx1112basic_stringIcSt11char_traitsIcESaIcEEEEdeEv(ptr noundef nonnull align 8 dereferenceable(8) %0) #6 comdat align 2 {
  %2 = alloca ptr, align 8
  store ptr %0, ptr %2, align 8, !tbaa !105
  %3 = load ptr, ptr %2, align 8
  %4 = getelementptr inbounds nuw %"class.__gnu_cxx::__normal_iterator.5", ptr %3, i32 0, i32 0
  %5 = load ptr, ptr %4, align 8, !tbaa !107
  ret ptr %5
}

; Function Attrs: mustprogress nounwind uwtable
define available_externally ptr @_ZNSt7__cxx1112basic_stringIcSt11char_traitsIcESaIcEE5beginEv(ptr noundef nonnull align 8 dereferenceable(32) %0) #6 align 2 {
  %2 = alloca %"class.__gnu_cxx::__normal_iterator.5", align 8
  %3 = alloca ptr, align 8
  %4 = alloca ptr, align 8
  store ptr %0, ptr %3, align 8, !tbaa !3
  %5 = load ptr, ptr %3, align 8
  call void @llvm.lifetime.start.p0(i64 8, ptr %4) #3
  %6 = call noundef ptr @_ZNKSt7__cxx1112basic_stringIcSt11char_traitsIcESaIcEE7_M_dataEv(ptr noundef nonnull align 8 dereferenceable(32) %5)
  store ptr %6, ptr %4, align 8, !tbaa !8
  call void @_ZN9__gnu_cxx17__normal_iteratorIPcNSt7__cxx1112basic_stringIcSt11char_traitsIcESaIcEEEEC2ERKS1_(ptr noundef nonnull align 8 dereferenceable(8) %2, ptr noundef nonnull align 8 dereferenceable(8) %4) #3
  call void @llvm.lifetime.end.p0(i64 8, ptr %4) #3
  %7 = getelementptr inbounds nuw %"class.__gnu_cxx::__normal_iterator.5", ptr %2, i32 0, i32 0
  %8 = load ptr, ptr %7, align 8
  ret ptr %8
}

; Function Attrs: mustprogress nounwind uwtable
define available_externally noundef zeroext i1 @_ZNKSt7__cxx1112basic_stringIcSt11char_traitsIcESaIcEE5emptyEv(ptr noundef nonnull align 8 dereferenceable(32) %0) #6 align 2 {
  %2 = alloca ptr, align 8
  store ptr %0, ptr %2, align 8, !tbaa !3
  %3 = load ptr, ptr %2, align 8
  %4 = call noundef i64 @_ZNKSt7__cxx1112basic_stringIcSt11char_traitsIcESaIcEE4sizeEv(ptr noundef nonnull align 8 dereferenceable(32) %3) #3
  %5 = icmp eq i64 %4, 0
  ret i1 %5
}

; Function Attrs: mustprogress uwtable
define available_externally noundef nonnull align 8 dereferenceable(32) ptr @_ZNSt7__cxx1112basic_stringIcSt11char_traitsIcESaIcEE5eraseEmm(ptr noundef nonnull align 8 dereferenceable(32) %0, i64 noundef %1, i64 noundef %2) #4 align 2 {
  %4 = alloca ptr, align 8
  %5 = alloca i64, align 8
  %6 = alloca i64, align 8
  store ptr %0, ptr %4, align 8, !tbaa !3
  store i64 %1, ptr %5, align 8, !tbaa !13
  store i64 %2, ptr %6, align 8, !tbaa !13
  %7 = load ptr, ptr %4, align 8
  %8 = load i64, ptr %5, align 8, !tbaa !13
  %9 = call noundef i64 @_ZNKSt7__cxx1112basic_stringIcSt11char_traitsIcESaIcEE8_M_checkEmPKc(ptr noundef nonnull align 8 dereferenceable(32) %7, i64 noundef %8, ptr noundef @.str.49)
  %10 = load i64, ptr %6, align 8, !tbaa !13
  %11 = icmp eq i64 %10, -1
  br i1 %11, label %12, label %14

12:                                               ; preds = %3
  %13 = load i64, ptr %5, align 8, !tbaa !13
  call void @_ZNSt7__cxx1112basic_stringIcSt11char_traitsIcESaIcEE13_M_set_lengthEm(ptr noundef nonnull align 8 dereferenceable(32) %7, i64 noundef %13)
  br label %23

14:                                               ; preds = %3
  %15 = load i64, ptr %6, align 8, !tbaa !13
  %16 = icmp ne i64 %15, 0
  br i1 %16, label %17, label %22

17:                                               ; preds = %14
  %18 = load i64, ptr %5, align 8, !tbaa !13
  %19 = load i64, ptr %5, align 8, !tbaa !13
  %20 = load i64, ptr %6, align 8, !tbaa !13
  %21 = call noundef i64 @_ZNKSt7__cxx1112basic_stringIcSt11char_traitsIcESaIcEE8_M_limitEmm(ptr noundef nonnull align 8 dereferenceable(32) %7, i64 noundef %19, i64 noundef %20) #3
  call void @_ZNSt7__cxx1112basic_stringIcSt11char_traitsIcESaIcEE8_M_eraseEmm(ptr noundef nonnull align 8 dereferenceable(32) %7, i64 noundef %18, i64 noundef %21)
  br label %22

22:                                               ; preds = %17, %14
  br label %23

23:                                               ; preds = %22, %12
  ret ptr %7
}

; Function Attrs: mustprogress nounwind uwtable
define available_externally void @_ZNSt7__cxx1112basic_stringIcSt11char_traitsIcESaIcEE5clearEv(ptr noundef nonnull align 8 dereferenceable(32) %0) #6 align 2 personality ptr @__gxx_personality_v0 {
  %2 = alloca ptr, align 8
  store ptr %0, ptr %2, align 8, !tbaa !3
  %3 = load ptr, ptr %2, align 8
  invoke void @_ZNSt7__cxx1112basic_stringIcSt11char_traitsIcESaIcEE13_M_set_lengthEm(ptr noundef nonnull align 8 dereferenceable(32) %3, i64 noundef 0)
          to label %4 unwind label %5

4:                                                ; preds = %1
  ret void

5:                                                ; preds = %1
  %6 = landingpad { ptr, i32 }
          catch ptr null
  %7 = extractvalue { ptr, i32 } %6, 0
  call void @__clang_call_terminate(ptr %7) #21
  unreachable
}

; Function Attrs: inlinehint mustprogress nounwind uwtable
define linkonce_odr noundef ptr @_ZN6google8protobuf15string_as_arrayEPNSt7__cxx1112basic_stringIcSt11char_traitsIcESaIcEEE(ptr noundef %0) #8 comdat {
  %2 = alloca ptr, align 8
  %3 = alloca %"class.__gnu_cxx::__normal_iterator.5", align 8
  store ptr %0, ptr %2, align 8, !tbaa !3
  %4 = load ptr, ptr %2, align 8, !tbaa !3
  %5 = call noundef zeroext i1 @_ZNKSt7__cxx1112basic_stringIcSt11char_traitsIcESaIcEE5emptyEv(ptr noundef nonnull align 8 dereferenceable(32) %4) #3
  call void @llvm.lifetime.start.p0(i64 8, ptr %3) #3
  br i1 %5, label %6, label %7

6:                                                ; preds = %1
  br label %12

7:                                                ; preds = %1
  %8 = load ptr, ptr %2, align 8, !tbaa !3
  %9 = call ptr @_ZNSt7__cxx1112basic_stringIcSt11char_traitsIcESaIcEE5beginEv(ptr noundef nonnull align 8 dereferenceable(32) %8) #3
  %10 = getelementptr inbounds nuw %"class.__gnu_cxx::__normal_iterator.5", ptr %3, i32 0, i32 0
  store ptr %9, ptr %10, align 8
  %11 = call noundef nonnull align 1 dereferenceable(1) ptr @_ZNK9__gnu_cxx17__normal_iteratorIPcNSt7__cxx1112basic_stringIcSt11char_traitsIcESaIcEEEEdeEv(ptr noundef nonnull align 8 dereferenceable(8) %3) #3
  br label %12

12:                                               ; preds = %7, %6
  %13 = phi ptr [ null, %6 ], [ %11, %7 ]
  call void @llvm.lifetime.end.p0(i64 8, ptr %3) #3
  ret ptr %13
}

; Function Attrs: mustprogress uwtable
define available_externally void @_ZNSt7__cxx1112basic_stringIcSt11char_traitsIcESaIcEE6resizeEm(ptr noundef nonnull align 8 dereferenceable(32) %0, i64 noundef %1) #4 align 2 {
  %3 = alloca ptr, align 8
  %4 = alloca i64, align 8
  store ptr %0, ptr %3, align 8, !tbaa !3
  store i64 %1, ptr %4, align 8, !tbaa !13
  %5 = load ptr, ptr %3, align 8
  %6 = load i64, ptr %4, align 8, !tbaa !13
  call void @_ZNSt7__cxx1112basic_stringIcSt11char_traitsIcESaIcEE6resizeEmc(ptr noundef nonnull align 8 dereferenceable(32) %5, i64 noundef %6, i8 noundef signext 0)
  ret void
}

; Function Attrs: mustprogress uwtable
define internal noundef zeroext i1 @_ZN6google8protobufL22Base64UnescapeInternalEPKciPNSt7__cxx1112basic_stringIcSt11char_traitsIcESaIcEEEPKa(ptr noundef %0, i32 noundef %1, ptr noundef %2, ptr noundef %3) #4 personality ptr @__gxx_personality_v0 {
  %5 = alloca i1, align 1
  %6 = alloca ptr, align 8
  %7 = alloca i32, align 4
  %8 = alloca ptr, align 8
  %9 = alloca ptr, align 8
  %10 = alloca i32, align 4
  %11 = alloca i32, align 4
  %12 = alloca i32, align 4
  %13 = alloca %"class.google::protobuf::internal::LogMessage", align 8
  %14 = alloca i1, align 1
  %15 = alloca i1, align 1
  %16 = alloca ptr, align 8
  %17 = alloca i32, align 4
  %18 = alloca %"class.google::protobuf::internal::LogFinisher", align 1
  store ptr %0, ptr %6, align 8, !tbaa !8
  store i32 %1, ptr %7, align 4, !tbaa !15
  store ptr %2, ptr %8, align 8, !tbaa !3
  store ptr %3, ptr %9, align 8, !tbaa !8
  call void @llvm.lifetime.start.p0(i64 4, ptr %10) #3
  %19 = load i32, ptr %7, align 4, !tbaa !15
  %20 = sdiv i32 %19, 4
  %21 = mul nsw i32 3, %20
  %22 = load i32, ptr %7, align 4, !tbaa !15
  %23 = srem i32 %22, 4
  %24 = add nsw i32 %21, %23
  store i32 %24, ptr %10, align 4, !tbaa !15
  %25 = load ptr, ptr %8, align 8, !tbaa !3
  %26 = load i32, ptr %10, align 4, !tbaa !15
  %27 = sext i32 %26 to i64
  call void @_ZNSt7__cxx1112basic_stringIcSt11char_traitsIcESaIcEE6resizeEm(ptr noundef nonnull align 8 dereferenceable(32) %25, i64 noundef %27)
  call void @llvm.lifetime.start.p0(i64 4, ptr %11) #3
  %28 = load ptr, ptr %6, align 8, !tbaa !8
  %29 = load i32, ptr %7, align 4, !tbaa !15
  %30 = load ptr, ptr %8, align 8, !tbaa !3
  %31 = call noundef ptr @_ZN6google8protobuf15string_as_arrayEPNSt7__cxx1112basic_stringIcSt11char_traitsIcESaIcEEE(ptr noundef %30)
  %32 = load i32, ptr %10, align 4, !tbaa !15
  %33 = load ptr, ptr %9, align 8, !tbaa !8
  %34 = call noundef i32 @_ZN6google8protobuf22Base64UnescapeInternalEPKciPciPKa(ptr noundef %28, i32 noundef %29, ptr noundef %31, i32 noundef %32, ptr noundef %33)
  store i32 %34, ptr %11, align 4, !tbaa !15
  %35 = load i32, ptr %11, align 4, !tbaa !15
  %36 = icmp slt i32 %35, 0
  br i1 %36, label %37, label %39

37:                                               ; preds = %4
  %38 = load ptr, ptr %8, align 8, !tbaa !3
  call void @_ZNSt7__cxx1112basic_stringIcSt11char_traitsIcESaIcEE5clearEv(ptr noundef nonnull align 8 dereferenceable(32) %38) #3
  store i1 false, ptr %5, align 1
  store i32 1, ptr %12, align 4
  br label %77

39:                                               ; preds = %4
  br label %40

40:                                               ; preds = %56, %39
  br i1 false, label %41, label %72

41:                                               ; preds = %40
  %42 = load i32, ptr %11, align 4, !tbaa !15
  %43 = load i32, ptr %10, align 4, !tbaa !15
  %44 = icmp sle i32 %42, %43
  store i1 false, ptr %14, align 1
  store i1 false, ptr %15, align 1
  call void @llvm.lifetime.start.p0(i64 1, ptr %18) #3
  br i1 %44, label %45, label %46

45:                                               ; preds = %41
  br label %50

46:                                               ; preds = %41
  call void @llvm.lifetime.start.p0(i64 56, ptr %13) #3
  store i1 true, ptr %14, align 1
  call void @_ZN6google8protobuf8internal10LogMessageC1ENS0_8LogLevelEPKci(ptr noundef nonnull align 8 dereferenceable(56) %13, i32 noundef 3, ptr noundef @.str, i32 noundef 2073)
  store i1 true, ptr %15, align 1
  %47 = invoke noundef nonnull align 8 dereferenceable(56) ptr @_ZN6google8protobuf8internal10LogMessagelsEPKc(ptr noundef nonnull align 8 dereferenceable(56) %13, ptr noundef @.str.39)
          to label %48 unwind label %57

48:                                               ; preds = %46
  invoke void @_ZN6google8protobuf8internal11LogFinisheraSERNS1_10LogMessageE(ptr noundef nonnull align 1 dereferenceable(1) %18, ptr noundef nonnull align 8 dereferenceable(56) %47)
          to label %49 unwind label %61

49:                                               ; preds = %48
  br label %50

50:                                               ; preds = %49, %45
  call void @llvm.lifetime.end.p0(i64 1, ptr %18) #3
  %51 = load i1, ptr %15, align 1
  br i1 %51, label %52, label %53

52:                                               ; preds = %50
  call void @_ZN6google8protobuf8internal10LogMessageD1Ev(ptr noundef nonnull align 8 dereferenceable(56) %13) #3
  br label %53

53:                                               ; preds = %52, %50
  %54 = load i1, ptr %14, align 1
  br i1 %54, label %55, label %56

55:                                               ; preds = %53
  call void @llvm.lifetime.end.p0(i64 56, ptr %13) #3
  br label %56

56:                                               ; preds = %55, %53
  br label %40, !llvm.loop !135

57:                                               ; preds = %46
  %58 = landingpad { ptr, i32 }
          cleanup
  %59 = extractvalue { ptr, i32 } %58, 0
  store ptr %59, ptr %16, align 8
  %60 = extractvalue { ptr, i32 } %58, 1
  store i32 %60, ptr %17, align 4
  br label %65

61:                                               ; preds = %48
  %62 = landingpad { ptr, i32 }
          cleanup
  %63 = extractvalue { ptr, i32 } %62, 0
  store ptr %63, ptr %16, align 8
  %64 = extractvalue { ptr, i32 } %62, 1
  store i32 %64, ptr %17, align 4
  call void @llvm.lifetime.end.p0(i64 1, ptr %18) #3
  br label %65

65:                                               ; preds = %61, %57
  %66 = load i1, ptr %15, align 1
  br i1 %66, label %67, label %68

67:                                               ; preds = %65
  call void @_ZN6google8protobuf8internal10LogMessageD1Ev(ptr noundef nonnull align 8 dereferenceable(56) %13) #3
  br label %68

68:                                               ; preds = %67, %65
  %69 = load i1, ptr %14, align 1
  br i1 %69, label %70, label %71

70:                                               ; preds = %68
  call void @llvm.lifetime.end.p0(i64 56, ptr %13) #3
  br label %71

71:                                               ; preds = %70, %68
  call void @llvm.lifetime.end.p0(i64 4, ptr %11) #3
  call void @llvm.lifetime.end.p0(i64 4, ptr %10) #3
  br label %79

72:                                               ; preds = %40
  %73 = load ptr, ptr %8, align 8, !tbaa !3
  %74 = load i32, ptr %11, align 4, !tbaa !15
  %75 = sext i32 %74 to i64
  %76 = call noundef nonnull align 8 dereferenceable(32) ptr @_ZNSt7__cxx1112basic_stringIcSt11char_traitsIcESaIcEE5eraseEmm(ptr noundef nonnull align 8 dereferenceable(32) %73, i64 noundef %75, i64 noundef -1)
  store i1 true, ptr %5, align 1
  store i32 1, ptr %12, align 4
  br label %77

77:                                               ; preds = %72, %37
  call void @llvm.lifetime.end.p0(i64 4, ptr %11) #3
  call void @llvm.lifetime.end.p0(i64 4, ptr %10) #3
  %78 = load i1, ptr %5, align 1
  ret i1 %78

79:                                               ; preds = %71
  %80 = load ptr, ptr %16, align 8
  %81 = load i32, ptr %17, align 4
  %82 = insertvalue { ptr, i32 } poison, ptr %80, 0
  %83 = insertvalue { ptr, i32 } %82, i32 %81, 1
  resume { ptr, i32 } %83
}

; Function Attrs: mustprogress nounwind uwtable
define linkonce_odr noundef i64 @_ZNK6google8protobuf11StringPiece4sizeEv(ptr noundef nonnull align 8 dereferenceable(16) %0) #6 comdat align 2 {
  %2 = alloca ptr, align 8
  store ptr %0, ptr %2, align 8, !tbaa !57
  %3 = load ptr, ptr %2, align 8
  %4 = getelementptr inbounds nuw %"class.google::protobuf::StringPiece", ptr %3, i32 0, i32 1
  %5 = load i64, ptr %4, align 8, !tbaa !59
  ret i64 %5
}

; Function Attrs: mustprogress nounwind uwtable
define linkonce_odr noundef ptr @_ZNK6google8protobuf11StringPiece4dataEv(ptr noundef nonnull align 8 dereferenceable(16) %0) #6 comdat align 2 {
  %2 = alloca ptr, align 8
  store ptr %0, ptr %2, align 8, !tbaa !57
  %3 = load ptr, ptr %2, align 8
  %4 = getelementptr inbounds nuw %"class.google::protobuf::StringPiece", ptr %3, i32 0, i32 0
  %5 = load ptr, ptr %4, align 8, !tbaa !61
  ret ptr %5
}

; Function Attrs: mustprogress uwtable
define noundef zeroext i1 @_ZN6google8protobuf14Base64UnescapeENS0_11StringPieceEPNSt7__cxx1112basic_stringIcSt11char_traitsIcESaIcEEE(ptr %0, i64 %1, ptr noundef %2) #4 {
  %4 = alloca %"class.google::protobuf::StringPiece", align 8
  %5 = alloca ptr, align 8
  %6 = getelementptr inbounds nuw { ptr, i64 }, ptr %4, i32 0, i32 0
  store ptr %0, ptr %6, align 8
  %7 = getelementptr inbounds nuw { ptr, i64 }, ptr %4, i32 0, i32 1
  store i64 %1, ptr %7, align 8
  store ptr %2, ptr %5, align 8, !tbaa !3
  %8 = call noundef ptr @_ZNK6google8protobuf11StringPiece4dataEv(ptr noundef nonnull align 8 dereferenceable(16) %4)
  %9 = call noundef i64 @_ZNK6google8protobuf11StringPiece4sizeEv(ptr noundef nonnull align 8 dereferenceable(16) %4)
  %10 = trunc i64 %9 to i32
  %11 = load ptr, ptr %5, align 8, !tbaa !3
  %12 = call noundef zeroext i1 @_ZN6google8protobufL22Base64UnescapeInternalEPKciPNSt7__cxx1112basic_stringIcSt11char_traitsIcESaIcEEEPKa(ptr noundef %8, i32 noundef %10, ptr noundef %11, ptr noundef @_ZN6google8protobufL9kUnBase64E)
  ret i1 %12
}